(lp0
(dp1
Vdomain
p2
Vwww.instagram.com
p3
sVname
p4
Vrur
p5
sVvalue
p6
VFRC
p7
sVpath
p8
V/
p9
sVhttpOnly
p10
I00
sVsecure
p11
I00
sa(dp12
Vdomain
p13
Vwww.instagram.com
p14
sVname
p15
Vig_or
p16
sVvalue
p17
Vlandscape-primary
p18
sVpath
p19
g9
sVhttpOnly
p20
I00
sVsecure
p21
I00
sa(dp22
Vdomain
p23
Vwww.instagram.com
p24
sVsecure
p25
I01
sVvalue
p26
VIGSC1f055813380e2208a94e1718762128c4a66b2c7aff7e5a49256ab12419d0cd95%3ANEUL4uJYwZboEpZoyGoLRvlPLbShyaaK%3A%7B%22_auth_user_id%22%3A298298845%2C%22_auth_user_backend%22%3A%22accounts.backends.CaseInsensitiveModelBackend%22%2C%22_auth_user_hash%22%3A%22%22%2C%22_platform%22%3A4%2C%22_token_ver%22%3A2%2C%22_token%22%3A%22298298845%3AtBbiKWlcqWbZRuHt0nrvakwvuqBwgLPP%3A4d63a0e3e5b5b6a28567bf82977ca3ec38fd4be75874cbe47626e30504ad15f3%22%2C%22last_refreshed%22%3A1523671486.6449551582%7D
p27
sVexpiry
p28
F1531447486.82964
sVpath
p29
g9
sVhttpOnly
p30
I01
sVname
p31
Vsessionid
p32
sa(dp33
Vdomain
p34
Vwww.instagram.com
p35
sVname
p36
Vurlgen
p37
sVvalue
p38
V"{\u005c"time\u005c": 1523671487\u005c054 \u005c"2600:8802:2507:7f00:9c1b:8b14:aa06:351\u005c": 22773}:1f7AYa:mPBNnD7nCRF9yBq8V8yqo6k4bFY"
p39
sVpath
p40
g9
sVhttpOnly
p41
I00
sVsecure
p42
I00
sa(dp43
Vdomain
p44
Vwww.instagram.com
p45
sVsecure
p46
I00
sVvalue
p47
V8972
p48
sVexpiry
p49
F1523844288.805221
sVpath
p50
g9
sVhttpOnly
p51
I00
sVname
p52
Vshbid
p53
sa(dp54
Vdomain
p55
Vwww.instagram.com
p56
sVsecure
p57
I01
sVvalue
p58
VcR61jjdKW5DBZNiNLyS0LG4FobBhRbV1
p59
sVexpiry
p60
F1555121088.805266
sVpath
p61
g9
sVhttpOnly
p62
I00
sVname
p63
Vcsrftoken
p64
sa(dp65
Vdomain
p66
Vwww.instagram.com
p67
sVname
p68
Vig_pr
p69
sVvalue
p70
V2
p71
sVpath
p72
g9
sVhttpOnly
p73
I00
sVsecure
p74
I00
sa(dp75
Vdomain
p76
Vwww.instagram.com
p77
sVsecure
p78
I00
sVvalue
p79
V298298845
p80
sVexpiry
p81
F1531447488.805279
sVpath
p82
g9
sVhttpOnly
p83
I00
sVname
p84
Vds_user_id
p85
sa(dp86
Vdomain
p87
Vwww.instagram.com
p88
sVname
p89
Vig_vh
p90
sVvalue
p91
V1439
p92
sVpath
p93
g9
sVhttpOnly
p94
I00
sVsecure
p95
I00
sa(dp96
Vdomain
p97
Vwww.instagram.com
p98
sVname
p99
Vig_vw
p100
sVvalue
p101
V1200
p102
sVpath
p103
g9
sVhttpOnly
p104
I00
sVsecure
p105
I00
sa(dp106
Vdomain
p107
Vwww.instagram.com
p108
sVsecure
p109
I00
sVvalue
p110
VWtFhuwAEAAFmHjLa_UdP5psbNB3A
p111
sVexpiry
p112
F2154391484.035301
sVpath
p113
g9
sVhttpOnly
p114
I00
sVname
p115
Vmid
p116
sa.