(lp0
(dp1
Vdomain
p2
Vwww.instagram.com
p3
sVname
p4
Vurlgen
p5
sVvalue
p6
V"{\u005c"time\u005c": 1516582574\u005c054 \u005c"107.195.5.17\u005c": 7018}:1edQPJ:GcLNs-NB0eFlVif4w420zekwLVQ"
p7
sVpath
p8
V/
p9
sVhttpOnly
p10
I00
sVsecure
p11
I00
sa(dp12
Vdomain
p13
Vwww.instagram.com
p14
sVname
p15
Vrur
p16
sVvalue
p17
VATN
p18
sVpath
p19
g9
sVhttpOnly
p20
I00
sVsecure
p21
I00
sa(dp22
Vdomain
p23
Vwww.instagram.com
p24
sVsecure
p25
I01
sVvalue
p26
VIGSC4d9ad92ed8c2bf593f63a08c6ab7869d09156e06708011e20018d2a106c69436%3ADjYvIBxkhu1gKmgw5cM3j4V9QBPiC0g6%3A%7B%22_auth_user_id%22%3A298298845%2C%22_auth_user_backend%22%3A%22accounts.backends.CaseInsensitiveModelBackend%22%2C%22_auth_user_hash%22%3A%22%22%2C%22_platform%22%3A4%2C%22_token_ver%22%3A2%2C%22_token%22%3A%22298298845%3AuWeydTJ0fK2h6ICwifLkzrD5MSuk9veV%3A1f614baed924b727f7355c07972959604a9b7f6bd651ef51923d71e20210faaf%22%2C%22last_refreshed%22%3A1516582574.1470961571%7D
p27
sVexpiry
p28
F1524358.574285141
sVpath
p29
g9
sVhttpOnly
p30
I01
sVname
p31
Vsessionid
p32
sa(dp33
Vdomain
p34
Vwww.instagram.com
p35
sVsecure
p36
I01
sVvalue
p37
Vj5JEXhkkx7ZY2IDNVi8Hup2Fin0VzAhd
p38
sVexpiry
p39
F1548032.177110007
sVpath
p40
g9
sVhttpOnly
p41
I00
sVname
p42
Vcsrftoken
p43
sa(dp44
Vdomain
p45
Vwww.instagram.com
p46
sVname
p47
Vig_pr
p48
sVvalue
p49
V1
p50
sVpath
p51
g9
sVhttpOnly
p52
I00
sVsecure
p53
I00
sa(dp54
Vdomain
p55
Vwww.instagram.com
p56
sVname
p57
Vig_or
p58
sVvalue
p59
Vportrait-primary
p60
sVpath
p61
g9
sVhttpOnly
p62
I00
sVsecure
p63
I00
sa(dp64
Vdomain
p65
Vwww.instagram.com
p66
sVsecure
p67
I00
sVvalue
p68
V298298845
p69
sVexpiry
p70
F1524358.577110064
sVpath
p71
g9
sVhttpOnly
p72
I00
sVname
p73
Vds_user_id
p74
sa(dp75
Vdomain
p76
Vwww.instagram.com
p77
sVname
p78
Vig_vh
p79
sVvalue
p80
V1499
p81
sVpath
p82
g9
sVhttpOnly
p83
I00
sVsecure
p84
I00
sa(dp85
Vdomain
p86
Vwww.instagram.com
p87
sVname
p88
Vig_vw
p89
sVvalue
p90
V1006
p91
sVpath
p92
g9
sVhttpOnly
p93
I00
sVsecure
p94
I00
sa(dp95
Vdomain
p96
Vwww.instagram.com
p97
sVsecure
p98
I00
sVvalue
p99
VWmU2oQAEAAEC0yH70Usd5fKzRDXn
p100
sVexpiry
p101
F2147302.561337273
sVpath
p102
g9
sVhttpOnly
p103
I00
sVname
p104
Vmid
p105
sa.